; Function Attrs: null_pointer_is_valid sspstrong uwtable
define hidden range(i32 0, 2) i32 @find_tn5250_conversation(ptr noundef %0) local_unnamed_addr #0 {
  %2 = tail call ptr @find_conversation_pinfo(ptr noundef %0, i32 noundef 0)
  %.not = icmp eq ptr %2, null
  br i1 %.not, label %6, label %3

3:                                                ; preds = %1
  %4 = load i32, ptr @proto_tn5250, align 4
  %5 = tail call ptr @conversation_get_proto_data(ptr noundef nonnull %2, i32 noundef %4)
  %.not5 = icmp eq ptr %5, null
  br i1 %.not5, label %6, label %7

6:                                                ; preds = %3, %1
  br label %7

7:                                                ; preds = %3, %6
  %.0 = phi i32 [ 0, %6 ], [ 1, %3 ]
  ret i32 %.0
}